target datalayout = "e-m:e-p270:32:32-p271:32:32-p272:64:64-i64:64-i128:128-f80:128-n8:16:32:64-S128"
target triple = "x86_64-pc-linux-gnu"

%"class.icu_77::RegexCompile" = type { ptr, ptr, ptr, ptr, i64, i8, i8, i8, i64, i64, i32, i32, %"struct.icu_77::RegexCompile::RegexPatternChar", [100 x i16], i32, i32, i32, i8, %"class.icu_77::UnicodeString", i64, %"class.icu_77::UVector32", i32, i32, i32, i32, %"class.icu_77::UStack", %"class.icu_77::UStack", i32, ptr }
%"struct.icu_77::RegexCompile::RegexPatternChar" = type { i32, i8 }
%"class.icu_77::UnicodeString" = type { %"class.icu_77::Replaceable", %"union.icu_77::UnicodeString::StackBufferOrFields" }
%"class.icu_77::Replaceable" = type { %"class.icu_77::UObject" }
%"class.icu_77::UObject" = type { ptr }
%"union.icu_77::UnicodeString::StackBufferOrFields" = type { %struct.anon.0, [32 x i8] }
%struct.anon.0 = type { i16, i32, i32, ptr }
%"class.icu_77::UVector32" = type { %"class.icu_77::UObject", i32, i32, i32, ptr }
%"class.icu_77::UStack" = type { %"class.icu_77::UVector" }
%"class.icu_77::UVector" = type { %"class.icu_77::UObject", i32, i32, ptr, ptr, ptr }
%"class.icu_77::RegexPattern" = type { %"class.icu_77::UObject", ptr, ptr, i32, ptr, %"class.icu_77::UnicodeString", ptr, ptr, i32, i32, i32, i32, ptr, i32, i32, i32, ptr, i32, ptr, i8, ptr }
%struct.UText = type { i32, i32, i32, i32, i64, i32, i32, i64, i32, i32, ptr, ptr, ptr, ptr, ptr, ptr, ptr, ptr, i64, i32, i32, i64, i32, i32 }

; Function Attrs: mustprogress uwtable
define noundef i32 @_ZN6icu_7712RegexCompile10nextCharLLEv(ptr noundef nonnull align 8 dereferenceable(512) %0) #1 align 2 {
  %2 = alloca i32, align 4
  %3 = alloca ptr, align 8
  %4 = alloca i32, align 4
  %5 = alloca i32, align 4
  store ptr %0, ptr %3, align 8, !tbaa !23
  %6 = load ptr, ptr %3, align 8
  call void @llvm.lifetime.start.p0(i64 4, ptr %4) #13
  %7 = getelementptr inbounds nuw %"class.icu_77::RegexCompile", ptr %6, i32 0, i32 11
  %8 = load i32, ptr %7, align 4, !tbaa !44
  %9 = icmp ne i32 %8, -1
  br i1 %9, label %10, label %15

10:                                               ; preds = %1
  %11 = getelementptr inbounds nuw %"class.icu_77::RegexCompile", ptr %6, i32 0, i32 11
  %12 = load i32, ptr %11, align 4, !tbaa !44
  store i32 %12, ptr %4, align 4, !tbaa !14
  %13 = getelementptr inbounds nuw %"class.icu_77::RegexCompile", ptr %6, i32 0, i32 11
  store i32 -1, ptr %13, align 4, !tbaa !44
  %14 = load i32, ptr %4, align 4, !tbaa !14
  store i32 %14, ptr %2, align 4
  store i32 1, ptr %5, align 4
  br label %110

15:                                               ; preds = %1
  %16 = getelementptr inbounds nuw %"class.icu_77::RegexCompile", ptr %6, i32 0, i32 2
  %17 = load ptr, ptr %16, align 8, !tbaa !41
  %18 = getelementptr inbounds nuw %"class.icu_77::RegexPattern", ptr %17, i32 0, i32 1
  %19 = load ptr, ptr %18, align 8, !tbaa !74
  %20 = getelementptr inbounds nuw %struct.UText, ptr %19, i32 0, i32 8
  %21 = load i32, ptr %20, align 8, !tbaa !100
  %22 = getelementptr inbounds nuw %"class.icu_77::RegexCompile", ptr %6, i32 0, i32 2
  %23 = load ptr, ptr %22, align 8, !tbaa !41
  %24 = getelementptr inbounds nuw %"class.icu_77::RegexPattern", ptr %23, i32 0, i32 1
  %25 = load ptr, ptr %24, align 8, !tbaa !74
  %26 = getelementptr inbounds nuw %struct.UText, ptr %25, i32 0, i32 9
  %27 = load i32, ptr %26, align 4, !tbaa !174
  %28 = icmp slt i32 %21, %27
  br i1 %28, label %29, label %65

29:                                               ; preds = %15
  %30 = getelementptr inbounds nuw %"class.icu_77::RegexCompile", ptr %6, i32 0, i32 2
  %31 = load ptr, ptr %30, align 8, !tbaa !41
  %32 = getelementptr inbounds nuw %"class.icu_77::RegexPattern", ptr %31, i32 0, i32 1
  %33 = load ptr, ptr %32, align 8, !tbaa !74
  %34 = getelementptr inbounds nuw %struct.UText, ptr %33, i32 0, i32 10
  %35 = load ptr, ptr %34, align 8, !tbaa !114
  %36 = getelementptr inbounds nuw %"class.icu_77::RegexCompile", ptr %6, i32 0, i32 2
  %37 = load ptr, ptr %36, align 8, !tbaa !41
  %38 = getelementptr inbounds nuw %"class.icu_77::RegexPattern", ptr %37, i32 0, i32 1
  %39 = load ptr, ptr %38, align 8, !tbaa !74
  %40 = getelementptr inbounds nuw %struct.UText, ptr %39, i32 0, i32 8
  %41 = load i32, ptr %40, align 8, !tbaa !100
  %42 = sext i32 %41 to i64
  %43 = getelementptr inbounds i16, ptr %35, i64 %42
  %44 = load i16, ptr %43, align 2, !tbaa !115
  %45 = zext i16 %44 to i32
  %46 = icmp slt i32 %45, 55296
  br i1 %46, label %47, label %65

47:                                               ; preds = %29
  %48 = getelementptr inbounds nuw %"class.icu_77::RegexCompile", ptr %6, i32 0, i32 2
  %49 = load ptr, ptr %48, align 8, !tbaa !41
  %50 = getelementptr inbounds nuw %"class.icu_77::RegexPattern", ptr %49, i32 0, i32 1
  %51 = load ptr, ptr %50, align 8, !tbaa !74
  %52 = getelementptr inbounds nuw %struct.UText, ptr %51, i32 0, i32 10
  %53 = load ptr, ptr %52, align 8, !tbaa !114
  %54 = getelementptr inbounds nuw %"class.icu_77::RegexCompile", ptr %6, i32 0, i32 2
  %55 = load ptr, ptr %54, align 8, !tbaa !41
  %56 = getelementptr inbounds nuw %"class.icu_77::RegexPattern", ptr %55, i32 0, i32 1
  %57 = load ptr, ptr %56, align 8, !tbaa !74
  %58 = getelementptr inbounds nuw %struct.UText, ptr %57, i32 0, i32 8
  %59 = load i32, ptr %58, align 8, !tbaa !100
  %60 = add nsw i32 %59, 1
  store i32 %60, ptr %58, align 8, !tbaa !100
  %61 = sext i32 %59 to i64
  %62 = getelementptr inbounds i16, ptr %53, i64 %61
  %63 = load i16, ptr %62, align 2, !tbaa !115
  %64 = zext i16 %63 to i32
  br label %71

65:                                               ; preds = %29, %15
  %66 = getelementptr inbounds nuw %"class.icu_77::RegexCompile", ptr %6, i32 0, i32 2
  %67 = load ptr, ptr %66, align 8, !tbaa !41
  %68 = getelementptr inbounds nuw %"class.icu_77::RegexPattern", ptr %67, i32 0, i32 1
  %69 = load ptr, ptr %68, align 8, !tbaa !74
  %70 = call i32 @utext_next32_77(ptr noundef %69)
  br label %71

71:                                               ; preds = %65, %47
  %72 = phi i32 [ %64, %47 ], [ %70, %65 ]
  store i32 %72, ptr %4, align 4, !tbaa !14
  %73 = load i32, ptr %4, align 4, !tbaa !14
  %74 = icmp eq i32 %73, -1
  br i1 %74, label %75, label %77

75:                                               ; preds = %71
  %76 = load i32, ptr %4, align 4, !tbaa !14
  store i32 %76, ptr %2, align 4
  store i32 1, ptr %5, align 4
  br label %110

77:                                               ; preds = %71
  %78 = load i32, ptr %4, align 4, !tbaa !14
  %79 = icmp eq i32 %78, 13
  br i1 %79, label %93, label %80

80:                                               ; preds = %77
  %81 = load i32, ptr %4, align 4, !tbaa !14
  %82 = icmp eq i32 %81, 133
  br i1 %82, label %93, label %83

83:                                               ; preds = %80
  %84 = load i32, ptr %4, align 4, !tbaa !14
  %85 = icmp eq i32 %84, 8232
  br i1 %85, label %93, label %86

86:                                               ; preds = %83
  %87 = load i32, ptr %4, align 4, !tbaa !14
  %88 = icmp eq i32 %87, 10
  br i1 %88, label %89, label %98

89:                                               ; preds = %86
  %90 = getelementptr inbounds nuw %"class.icu_77::RegexCompile", ptr %6, i32 0, i32 10
  %91 = load i32, ptr %90, align 8, !tbaa !43
  %92 = icmp ne i32 %91, 13
  br i1 %92, label %93, label %98

93:                                               ; preds = %89, %83, %80, %77
  %94 = getelementptr inbounds nuw %"class.icu_77::RegexCompile", ptr %6, i32 0, i32 8
  %95 = load i64, ptr %94, align 8, !tbaa !45
  %96 = add nsw i64 %95, 1
  store i64 %96, ptr %94, align 8, !tbaa !45
  %97 = getelementptr inbounds nuw %"class.icu_77::RegexCompile", ptr %6, i32 0, i32 9
  store i64 0, ptr %97, align 8, !tbaa !46
  br label %106

98:                                               ; preds = %89, %86
  %99 = load i32, ptr %4, align 4, !tbaa !14
  %100 = icmp ne i32 %99, 10
  br i1 %100, label %101, label %105

101:                                              ; preds = %98
  %102 = getelementptr inbounds nuw %"class.icu_77::RegexCompile", ptr %6, i32 0, i32 9
  %103 = load i64, ptr %102, align 8, !tbaa !46
  %104 = add nsw i64 %103, 1
  store i64 %104, ptr %102, align 8, !tbaa !46
  br label %105

105:                                              ; preds = %101, %98
  br label %106

106:                                              ; preds = %105, %93
  %107 = load i32, ptr %4, align 4, !tbaa !14
  %108 = getelementptr inbounds nuw %"class.icu_77::RegexCompile", ptr %6, i32 0, i32 10
  store i32 %107, ptr %108, align 8, !tbaa !43
  %109 = load i32, ptr %4, align 4, !tbaa !14
  store i32 %109, ptr %2, align 4
  store i32 1, ptr %5, align 4
  br label %110

110:                                              ; preds = %106, %75, %10
  call void @llvm.lifetime.end.p0(i64 4, ptr %4) #13
  %111 = load i32, ptr %2, align 4
  ret i32 %111
}