; Function Attrs: mustprogress uwtable
define noundef i32 @_ZN6icu_7712RegexCompile10nextCharLLEv(ptr noundef nonnull align 8 captures(none) dereferenceable(512) %0) local_unnamed_addr #1 align 2 {
  %2 = getelementptr inbounds nuw i8, ptr %0, i64 68
  %3 = load i32, ptr %2, align 4, !tbaa !36
  %.not = icmp eq i32 %3, -1
  br i1 %.not, label %5, label %4

4:                                                ; preds = %1
  store i32 -1, ptr %2, align 4, !tbaa !36
  br label %43

5:                                                ; preds = %1
  %6 = getelementptr inbounds nuw i8, ptr %0, i64 16
  %7 = load ptr, ptr %6, align 8, !tbaa !33
  %8 = getelementptr inbounds nuw i8, ptr %7, i64 8
  %9 = load ptr, ptr %8, align 8, !tbaa !62
  %10 = getelementptr inbounds nuw i8, ptr %9, i64 40
  %11 = load i32, ptr %10, align 8, !tbaa !89
  %12 = getelementptr inbounds nuw i8, ptr %9, i64 44
  %13 = load i32, ptr %12, align 4, !tbaa !98
  %14 = icmp slt i32 %11, %13
  br i1 %14, label %15, label %25

15:                                               ; preds = %5
  %16 = getelementptr inbounds nuw i8, ptr %9, i64 48
  %17 = load ptr, ptr %16, align 8, !tbaa !99
  %18 = sext i32 %11 to i64
  %19 = getelementptr inbounds i16, ptr %17, i64 %18
  %20 = load i16, ptr %19, align 2, !tbaa !100
  %21 = icmp ult i16 %20, -10240
  br i1 %21, label %22, label %25

22:                                               ; preds = %15
  %23 = add nsw i32 %11, 1
  store i32 %23, ptr %10, align 8, !tbaa !89
  %24 = zext i16 %20 to i32
  br label %27

25:                                               ; preds = %15, %5
  %26 = tail call i32 @utext_next32_77(ptr noundef nonnull %9)
  br label %27

27:                                               ; preds = %25, %22
  %28 = phi i32 [ %24, %22 ], [ %26, %25 ]
  switch i32 %28, label %37 [
    i32 -1, label %43
    i32 8232, label %32
    i32 133, label %32
    i32 13, label %32
    i32 10, label %29
  ]

29:                                               ; preds = %27
  %30 = getelementptr inbounds nuw i8, ptr %0, i64 64
  %31 = load i32, ptr %30, align 8, !tbaa !35
  %.not17 = icmp eq i32 %31, 13
  br i1 %.not17, label %41, label %32

32:                                               ; preds = %27, %27, %27, %29
  %33 = getelementptr inbounds nuw i8, ptr %0, i64 48
  %34 = load i64, ptr %33, align 8, !tbaa !37
  %35 = add nsw i64 %34, 1
  store i64 %35, ptr %33, align 8, !tbaa !37
  %36 = getelementptr inbounds nuw i8, ptr %0, i64 56
  store i64 0, ptr %36, align 8, !tbaa !38
  br label %41

37:                                               ; preds = %27
  %38 = getelementptr inbounds nuw i8, ptr %0, i64 56
  %39 = load i64, ptr %38, align 8, !tbaa !38
  %40 = add nsw i64 %39, 1
  store i64 %40, ptr %38, align 8, !tbaa !38
  br label %41

41:                                               ; preds = %29, %37, %32
  %42 = getelementptr inbounds nuw i8, ptr %0, i64 64
  store i32 %28, ptr %42, align 8, !tbaa !35
  br label %43

43:                                               ; preds = %27, %41, %4
  %.0 = phi i32 [ %3, %4 ], [ %28, %41 ], [ %28, %27 ]
  ret i32 %.0
}